target datalayout = "e-m:e-p270:32:32-p271:32:32-p272:64:64-i64:64-i128:128-f80:128-n8:16:32:64-S128"
target triple = "x86_64-pc-linux-gnu"

@numTempTableSpaces = internal global i32 -1, align 4
@tempTableSpaces = internal global ptr null, align 8
@nextTempTableSpace = internal global i32 0, align 4

; Function Attrs: nounwind uwtable
define dso_local i32 @GetNextTempTableSpace() #0 {
  %1 = alloca i32, align 4
  %2 = load i32, ptr @numTempTableSpaces, align 4
  %3 = icmp sgt i32 %2, 0
  br i1 %3, label %4, label %16

4:                                                ; preds = %0
  %5 = load i32, ptr @nextTempTableSpace, align 4
  %6 = add i32 %5, 1
  store i32 %6, ptr @nextTempTableSpace, align 4
  %7 = load i32, ptr @numTempTableSpaces, align 4
  %8 = icmp sge i32 %6, %7
  br i1 %8, label %9, label %10

9:                                                ; preds = %4
  store i32 0, ptr @nextTempTableSpace, align 4
  br label %10

10:                                               ; preds = %9, %4
  %11 = load ptr, ptr @tempTableSpaces, align 8
  %12 = load i32, ptr @nextTempTableSpace, align 4
  %13 = sext i32 %12 to i64
  %14 = getelementptr inbounds i32, ptr %11, i64 %13
  %15 = load i32, ptr %14, align 4
  store i32 %15, ptr %1, align 4
  br label %17

16:                                               ; preds = %0
  store i32 0, ptr %1, align 4
  br label %17

17:                                               ; preds = %16, %10
  %18 = load i32, ptr %1, align 4
  ret i32 %18
}