; Function Attrs: mustprogress nofree norecurse nosync nounwind willreturn memory(readwrite, argmem: read, inaccessiblemem: none) uwtable
define dso_local i32 @GetNextTempTableSpace() local_unnamed_addr #16 {
  %1 = load i32, ptr @numTempTableSpaces, align 4
  %2 = icmp sgt i32 %1, 0
  br i1 %2, label %3, label %10

3:                                                ; preds = %0
  %4 = load i32, ptr @nextTempTableSpace, align 4
  %5 = add i32 %4, 1
  %.not = icmp slt i32 %5, %1
  %spec.store.select = select i1 %.not, i32 %5, i32 0
  store i32 %spec.store.select, ptr @nextTempTableSpace, align 4
  %6 = load ptr, ptr @tempTableSpaces, align 8
  %7 = sext i32 %spec.store.select to i64
  %8 = getelementptr inbounds i32, ptr %6, i64 %7
  %9 = load i32, ptr %8, align 4
  br label %10

10:                                               ; preds = %0, %3
  %.0 = phi i32 [ %9, %3 ], [ 0, %0 ]
  ret i32 %.0
}